target datalayout = "e-m:e-p270:32:32-p271:32:32-p272:64:64-i64:64-i128:128-f80:128-n8:16:32:64-S128"
target triple = "x86_64-unknown-linux-gnu"

%"class.icu_75::TransliteratorIDParser::Specs" = type <{ [8 x i8], %"class.icu_75::UnicodeString", %"class.icu_75::UnicodeString", %"class.icu_75::UnicodeString", %"class.icu_75::UnicodeString", i8, [7 x i8] }>
%"class.icu_75::UnicodeString" = type { %"class.icu_75::Replaceable", %"union.icu_75::UnicodeString::StackBufferOrFields" }
%"class.icu_75::Replaceable" = type { %"class.icu_75::UObject" }
%"class.icu_75::UObject" = type { ptr }
%"union.icu_75::UnicodeString::StackBufferOrFields" = type { %struct.anon.0, [32 x i8] }
%struct.anon.0 = type { i16, i32, i32, ptr }
%"class.icu_75::TransliteratorIDParser::SingleID" = type { [8 x i8], %"class.icu_75::UnicodeString", %"class.icu_75::UnicodeString", %"class.icu_75::UnicodeString" }

; Function Attrs: mustprogress nounwind uwtable
define linkonce_odr void @_ZN6icu_7522TransliteratorIDParser5SpecsD2Ev(ptr noundef nonnull align 8 dereferenceable(265) %this) unnamed_addr #0 comdat align 2 {
entry:
  %this.addr = alloca ptr, align 8
  store ptr %this, ptr %this.addr, align 8
  %this1 = load ptr, ptr %this.addr, align 8
  %filter = getelementptr inbounds %"class.icu_75::TransliteratorIDParser::Specs", ptr %this1, i32 0, i32 4
  call void @_ZN6icu_7513UnicodeStringD1Ev(ptr noundef nonnull align 8 dereferenceable(64) %filter) #8
  %variant = getelementptr inbounds %"class.icu_75::TransliteratorIDParser::Specs", ptr %this1, i32 0, i32 3
  call void @_ZN6icu_7513UnicodeStringD1Ev(ptr noundef nonnull align 8 dereferenceable(64) %variant) #8
  %target = getelementptr inbounds %"class.icu_75::TransliteratorIDParser::Specs", ptr %this1, i32 0, i32 2
  call void @_ZN6icu_7513UnicodeStringD1Ev(ptr noundef nonnull align 8 dereferenceable(64) %target) #8
  %source = getelementptr inbounds %"class.icu_75::TransliteratorIDParser::Specs", ptr %this1, i32 0, i32 1
  call void @_ZN6icu_7513UnicodeStringD1Ev(ptr noundef nonnull align 8 dereferenceable(64) %source) #8
  ret void
}

; Function Attrs: mustprogress uwtable
define noundef ptr @_ZN6icu_7522TransliteratorIDParser13parseFilterIDERKNS_13UnicodeStringERi(ptr noundef nonnull align 8 dereferenceable(64) %id, ptr noundef nonnull align 4 dereferenceable(4) %pos) #1 align 2 {
entry:
  %retval = alloca ptr, align 8
  %id.addr = alloca ptr, align 8
  %pos.addr = alloca ptr, align 8
  %start = alloca i32, align 4
  %specs = alloca ptr, align 8
  %single = alloca ptr, align 8
  store ptr %id, ptr %id.addr, align 8
  store ptr %pos, ptr %pos.addr, align 8
  %0 = load ptr, ptr %pos.addr, align 8
  %1 = load i32, ptr %0, align 4
  store i32 %1, ptr %start, align 4
  %2 = load ptr, ptr %id.addr, align 8
  %3 = load ptr, ptr %pos.addr, align 8
  %call = call noundef ptr @_ZN6icu_7522TransliteratorIDParser13parseFilterIDERKNS_13UnicodeStringERia(ptr noundef nonnull align 8 dereferenceable(64) %2, ptr noundef nonnull align 4 dereferenceable(4) %3, i8 noundef signext 1)
  store ptr %call, ptr %specs, align 8
  %4 = load ptr, ptr %specs, align 8
  %cmp = icmp eq ptr %4, null
  br i1 %cmp, label %if.then, label %if.end

if.then:                                          ; preds = %entry
  %5 = load i32, ptr %start, align 4
  %6 = load ptr, ptr %pos.addr, align 8
  store i32 %5, ptr %6, align 4
  store ptr null, ptr %retval, align 8
  br label %return

if.end:                                           ; preds = %entry
  %7 = load ptr, ptr %specs, align 8
  %call1 = call noundef ptr @_ZN6icu_7522TransliteratorIDParser9specsToIDEPKNS0_5SpecsEi(ptr noundef %7, i32 noundef 0)
  store ptr %call1, ptr %single, align 8
  %8 = load ptr, ptr %single, align 8
  %cmp2 = icmp ne ptr %8, null
  br i1 %cmp2, label %if.then3, label %if.end6

if.then3:                                         ; preds = %if.end
  %9 = load ptr, ptr %specs, align 8
  %filter = getelementptr inbounds %"class.icu_75::TransliteratorIDParser::Specs", ptr %9, i32 0, i32 4
  %10 = load ptr, ptr %single, align 8
  %filter4 = getelementptr inbounds %"class.icu_75::TransliteratorIDParser::SingleID", ptr %10, i32 0, i32 3
  %call5 = call noundef nonnull align 8 dereferenceable(64) ptr @_ZN6icu_7513UnicodeStringaSERKS0_(ptr noundef nonnull align 8 dereferenceable(64) %filter4, ptr noundef nonnull align 8 dereferenceable(64) %filter)
  br label %if.end6

if.end6:                                          ; preds = %if.then3, %if.end
  %11 = load ptr, ptr %specs, align 8
  %isnull = icmp eq ptr %11, null
  br i1 %isnull, label %delete.end, label %delete.notnull

delete.notnull:                                   ; preds = %if.end6
  call void @_ZN6icu_7522TransliteratorIDParser5SpecsD2Ev(ptr noundef nonnull align 8 dereferenceable(265) %11) #8
  call void @_ZN6icu_757UMemorydlEPv(ptr noundef %11) #8
  br label %delete.end

delete.end:                                       ; preds = %delete.notnull, %if.end6
  %12 = load ptr, ptr %single, align 8
  store ptr %12, ptr %retval, align 8
  br label %return

return:                                           ; preds = %delete.end, %if.then
  %13 = load ptr, ptr %retval, align 8
  ret ptr %13
}