; Function Attrs: mustprogress uwtable
define noundef ptr @_ZN6icu_7522TransliteratorIDParser13parseFilterIDERKNS_13UnicodeStringERi(ptr noundef nonnull align 8 dereferenceable(64) %id, ptr noundef nonnull align 4 dereferenceable(4) %pos) local_unnamed_addr #1 align 2 {
entry:
  %0 = load i32, ptr %pos, align 4
  %call = tail call noundef ptr @_ZN6icu_7522TransliteratorIDParser13parseFilterIDERKNS_13UnicodeStringERia(ptr noundef nonnull align 8 dereferenceable(64) %id, ptr noundef nonnull align 4 dereferenceable(4) %pos, i8 noundef signext 1)
  %cmp = icmp eq ptr %call, null
  br i1 %cmp, label %if.then, label %if.end

if.then:                                          ; preds = %entry
  store i32 %0, ptr %pos, align 4
  br label %return

if.end:                                           ; preds = %entry
  %call1 = tail call noundef ptr @_ZN6icu_7522TransliteratorIDParser9specsToIDEPKNS0_5SpecsEi(ptr noundef nonnull %call, i32 noundef 0)
  %cmp2.not = icmp eq ptr %call1, null
  br i1 %cmp2.not, label %delete.notnull, label %if.then3

if.then3:                                         ; preds = %if.end
  %filter = getelementptr inbounds i8, ptr %call, i64 200
  %filter4 = getelementptr inbounds i8, ptr %call1, i64 136
  %call5 = tail call noundef nonnull align 8 dereferenceable(64) ptr @_ZN6icu_7513UnicodeStringaSERKS0_(ptr noundef nonnull align 8 dereferenceable(64) %filter4, ptr noundef nonnull align 8 dereferenceable(64) %filter)
  br label %delete.notnull

delete.notnull:                                   ; preds = %if.end, %if.then3
  %filter.i = getelementptr inbounds i8, ptr %call, i64 200
  tail call void @_ZN6icu_7513UnicodeStringD1Ev(ptr noundef nonnull align 8 dereferenceable(64) %filter.i) #9
  %variant.i = getelementptr inbounds i8, ptr %call, i64 136
  tail call void @_ZN6icu_7513UnicodeStringD1Ev(ptr noundef nonnull align 8 dereferenceable(64) %variant.i) #9
  %target.i = getelementptr inbounds i8, ptr %call, i64 72
  tail call void @_ZN6icu_7513UnicodeStringD1Ev(ptr noundef nonnull align 8 dereferenceable(64) %target.i) #9
  %source.i = getelementptr inbounds i8, ptr %call, i64 8
  tail call void @_ZN6icu_7513UnicodeStringD1Ev(ptr noundef nonnull align 8 dereferenceable(64) %source.i) #9
  tail call void @_ZN6icu_757UMemorydlEPv(ptr noundef nonnull %call) #9
  br label %return

return:                                           ; preds = %delete.notnull, %if.then
  %retval.0 = phi ptr [ null, %if.then ], [ %call1, %delete.notnull ]
  ret ptr %retval.0
}